target datalayout = "e-m:e-p270:32:32-p271:32:32-p272:64:64-i64:64-i128:128-f80:128-n8:16:32:64-S128"
target triple = "x86_64-pc-linux-gnu"

%struct.pmix_mca_base_framework_t = type { ptr, ptr, ptr, ptr, ptr, ptr, i32, i32, ptr, ptr, i32, i32, %struct.pmix_list_t, %struct.pmix_list_t }
%struct.pmix_list_t = type { %struct.pmix_object_t, %struct.pmix_list_item_t, i64 }
%struct.pmix_object_t = type { %union.pthread_mutex_t, ptr, i32, %struct.pmix_tma }
%union.pthread_mutex_t = type { %struct.__pthread_mutex_s }
%struct.__pthread_mutex_s = type { i32, i32, i32, i32, i32, i16, i16, %struct.__pthread_internal_list }
%struct.__pthread_internal_list = type { ptr, ptr }
%struct.pmix_tma = type { ptr, ptr, ptr, ptr, ptr, ptr, ptr, ptr }
%struct.pmix_list_item_t = type { %struct.pmix_object_t, ptr, ptr, i32 }
%struct.pmix_output_desc_t = type { i8, i8, i32, i8, i32, ptr, ptr, i32, ptr, i32, i8, i8, i8, i8, ptr, i32, i32 }
%struct.prte_process_info_t = type { %struct.pmix_proc, %struct.pmix_proc, ptr, %struct.pmix_proc, i32, i32, i32, ptr, ptr, i32, i8, ptr, i16, ptr, ptr, i8, ptr, i8 }
%struct.pmix_proc = type { [256 x i8], i32 }

@prte_odls_base_framework = external global %struct.pmix_mca_base_framework_t, align 8
@pmix_output_info = external global [0 x %struct.pmix_output_desc_t], align 8
@prte_process_info = external global %struct.prte_process_info_t, align 8
@.str.20 = private unnamed_addr constant [58 x i8] c"%s odls:default:restart_proc failed to launch on error %s\00", align 1

; Function Attrs: nounwind uwtable
define internal i32 @prte_odls_default_restart_proc(ptr noundef %0) #1 {
  %2 = alloca ptr, align 8
  %3 = alloca i32, align 4
  store ptr %0, ptr %2, align 8, !tbaa !35
  call void @llvm.lifetime.start.p0(i64 4, ptr %3) #13
  %4 = load ptr, ptr %2, align 8, !tbaa !35
  %5 = call i32 @prte_odls_base_default_restart_proc(ptr noundef %4, ptr noundef @odls_default_fork_local_proc)
  store i32 %5, ptr %3, align 4, !tbaa !8
  %6 = load i32, ptr %3, align 4, !tbaa !8
  %7 = icmp ne i32 0, %6
  br i1 %7, label %8, label %27

8:                                                ; preds = %1
  %9 = load i32, ptr getelementptr inbounds nuw (%struct.pmix_mca_base_framework_t, ptr @prte_odls_base_framework, i32 0, i32 11), align 4, !tbaa !10
  %10 = icmp sge i32 %9, 0
  br i1 %10, label %11, label %26

11:                                               ; preds = %8
  %12 = load i32, ptr getelementptr inbounds nuw (%struct.pmix_mca_base_framework_t, ptr @prte_odls_base_framework, i32 0, i32 11), align 4, !tbaa !10
  %13 = icmp slt i32 %12, 64
  br i1 %13, label %14, label %26

14:                                               ; preds = %11
  %15 = load i32, ptr getelementptr inbounds nuw (%struct.pmix_mca_base_framework_t, ptr @prte_odls_base_framework, i32 0, i32 11), align 4, !tbaa !10
  %16 = sext i32 %15 to i64
  %17 = getelementptr inbounds [0 x %struct.pmix_output_desc_t], ptr @pmix_output_info, i64 0, i64 %16
  %18 = getelementptr inbounds nuw %struct.pmix_output_desc_t, ptr %17, i32 0, i32 2
  %19 = load i32, ptr %18, align 4, !tbaa !21
  %20 = icmp sge i32 %19, 2
  br i1 %20, label %21, label %26

21:                                               ; preds = %14
  %22 = load i32, ptr getelementptr inbounds nuw (%struct.pmix_mca_base_framework_t, ptr @prte_odls_base_framework, i32 0, i32 11), align 4, !tbaa !10
  %23 = call ptr @prte_util_print_name_args(ptr noundef @prte_process_info)
  %24 = load i32, ptr %3, align 4, !tbaa !8
  %25 = call ptr @prte_strerror(i32 noundef %24)
  call void (i32, ptr, ...) @pmix_output(i32 noundef %22, ptr noundef @.str.20, ptr noundef %23, ptr noundef %25)
  br label %26

26:                                               ; preds = %21, %14, %11, %8
  br label %27

27:                                               ; preds = %26, %1
  %28 = load i32, ptr %3, align 4, !tbaa !8
  call void @llvm.lifetime.end.p0(i64 4, ptr %3) #13
  ret i32 %28
}