; Function Attrs: nounwind uwtable
define internal i32 @prte_odls_default_restart_proc(ptr noundef %0) #1 {
  %2 = tail call i32 @prte_odls_base_default_restart_proc(ptr noundef %0, ptr noundef nonnull @odls_default_fork_local_proc) #16
  %.not = icmp eq i32 %2, 0
  br i1 %.not, label %13, label %3

3:                                                ; preds = %1
  %4 = load i32, ptr getelementptr inbounds nuw (i8, ptr @prte_odls_base_framework, i64 76), align 4, !tbaa !3
  %or.cond = icmp ult i32 %4, 64
  br i1 %or.cond, label %5, label %13

5:                                                ; preds = %3
  %6 = zext nneg i32 %4 to i64
  %7 = getelementptr inbounds nuw [0 x %struct.pmix_output_desc_t], ptr @pmix_output_info, i64 0, i64 %6, i32 2
  %8 = load i32, ptr %7, align 4, !tbaa !18
  %9 = icmp sgt i32 %8, 1
  br i1 %9, label %10, label %13

10:                                               ; preds = %5
  %11 = tail call ptr @prte_util_print_name_args(ptr noundef nonnull @prte_process_info) #16
  %12 = tail call ptr @prte_strerror(i32 noundef %2) #16
  tail call void (i32, ptr, ...) @pmix_output(i32 noundef %4, ptr noundef nonnull @.str.20, ptr noundef %11, ptr noundef %12) #16
  br label %13

13:                                               ; preds = %3, %5, %10, %1
  ret i32 %2
}